target datalayout = "e-m:e-p270:32:32-p271:32:32-p272:64:64-i64:64-i128:128-f80:128-n8:16:32:64-S128"
target triple = "x86_64-pc-linux-gnu"

%struct.Cnf_Dat_t_ = type { ptr, i32, i32, i32, ptr, ptr, ptr, ptr, ptr, ptr }
%struct.timespec = type { i64, i64 }

@.str.23 = private unnamed_addr constant [40 x i8] c"Abc_NtkDarToCnf: AIG check has failed.\0A\00", align 1
@.str.24 = private unnamed_addr constant [57 x i8] c"CNF stats: Vars = %6d. Clauses = %7d. Literals = %8d.   \00", align 1
@.str.25 = private unnamed_addr constant [5 x i8] c"Time\00", align 1
@.str.32 = private unnamed_addr constant [5 x i8] c"%s =\00", align 1
@.str.33 = private unnamed_addr constant [11 x i8] c"%9.2f sec\0A\00", align 1

; Function Attrs: nounwind uwtable
define internal void @Abc_PrintTime(i32 noundef %0, ptr noundef %1, i64 noundef %2) #0 {
  %4 = alloca i32, align 4
  %5 = alloca ptr, align 8
  %6 = alloca i64, align 8
  store i32 %0, ptr %4, align 4
  store ptr %1, ptr %5, align 8
  store i64 %2, ptr %6, align 8
  %7 = load ptr, ptr %5, align 8
  call void (i32, ptr, ...) @Abc_Print(i32 noundef 1, ptr noundef @.str.32, ptr noundef %7)
  %8 = load i64, ptr %6, align 8
  %9 = sitofp i64 %8 to double
  %10 = fmul double 1.000000e+00, %9
  %11 = fdiv double %10, 1.000000e+06
  call void (i32, ptr, ...) @Abc_Print(i32 noundef 1, ptr noundef @.str.33, double noundef %11)
  ret void
}

; Function Attrs: nounwind uwtable
define internal i64 @Abc_Clock() #0 {
  %1 = alloca i64, align 8
  %2 = alloca %struct.timespec, align 8
  %3 = alloca i64, align 8
  %4 = call i32 @clock_gettime(i32 noundef 1, ptr noundef %2) #10
  %5 = icmp slt i32 %4, 0
  br i1 %5, label %6, label %7

6:                                                ; preds = %0
  store i64 -1, ptr %1, align 8
  br label %18

7:                                                ; preds = %0
  %8 = getelementptr inbounds %struct.timespec, ptr %2, i32 0, i32 0
  %9 = load i64, ptr %8, align 8
  %10 = mul nsw i64 %9, 1000000
  store i64 %10, ptr %3, align 8
  %11 = getelementptr inbounds %struct.timespec, ptr %2, i32 0, i32 1
  %12 = load i64, ptr %11, align 8
  %13 = mul nsw i64 %12, 1000000
  %14 = sdiv i64 %13, 1000000000
  %15 = load i64, ptr %3, align 8
  %16 = add nsw i64 %15, %14
  store i64 %16, ptr %3, align 8
  %17 = load i64, ptr %3, align 8
  store i64 %17, ptr %1, align 8
  br label %18

18:                                               ; preds = %7, %6
  %19 = load i64, ptr %1, align 8
  ret i64 %19
}

; Function Attrs: nounwind uwtable
define ptr @Abc_NtkDarToCnf(ptr noundef %0, ptr noundef %1, i32 noundef %2, i32 noundef %3, i32 noundef %4) #0 {
  %6 = alloca ptr, align 8
  %7 = alloca ptr, align 8
  %8 = alloca ptr, align 8
  %9 = alloca i32, align 4
  %10 = alloca i32, align 4
  %11 = alloca i32, align 4
  %12 = alloca ptr, align 8
  %13 = alloca ptr, align 8
  %14 = alloca ptr, align 8
  %15 = alloca i64, align 8
  store ptr %0, ptr %7, align 8
  store ptr %1, ptr %8, align 8
  store i32 %2, ptr %9, align 4
  store i32 %3, ptr %10, align 4
  store i32 %4, ptr %11, align 4
  store ptr null, ptr %14, align 8
  %16 = call i64 @Abc_Clock()
  store i64 %16, ptr %15, align 8
  %17 = load ptr, ptr %7, align 8
  %18 = call ptr @Abc_NtkToDar(ptr noundef %17, i32 noundef 0, i32 noundef 0)
  store ptr %18, ptr %12, align 8
  %19 = load ptr, ptr %12, align 8
  %20 = icmp eq ptr %19, null
  br i1 %20, label %21, label %22

21:                                               ; preds = %5
  store ptr null, ptr %6, align 8
  br label %65

22:                                               ; preds = %5
  %23 = load ptr, ptr %12, align 8
  %24 = call i32 @Aig_ManCheck(ptr noundef %23)
  %25 = icmp ne i32 %24, 0
  br i1 %25, label %28, label %26

26:                                               ; preds = %22
  call void (i32, ptr, ...) @Abc_Print(i32 noundef 1, ptr noundef @.str.23)
  %27 = load ptr, ptr %12, align 8
  call void @Aig_ManStop(ptr noundef %27)
  store ptr null, ptr %6, align 8
  br label %65

28:                                               ; preds = %22
  %29 = load i32, ptr %11, align 4
  %30 = icmp ne i32 %29, 0
  br i1 %30, label %31, label %33

31:                                               ; preds = %28
  %32 = load ptr, ptr %12, align 8
  call void @Aig_ManPrintStats(ptr noundef %32)
  br label %33

33:                                               ; preds = %31, %28
  %34 = load i32, ptr %9, align 4
  %35 = icmp ne i32 %34, 0
  br i1 %35, label %36, label %39

36:                                               ; preds = %33
  %37 = load ptr, ptr %12, align 8
  %38 = call ptr @Cnf_DeriveFast(ptr noundef %37, i32 noundef 0)
  store ptr %38, ptr %13, align 8
  br label %42

39:                                               ; preds = %33
  %40 = load ptr, ptr %12, align 8
  %41 = call ptr @Cnf_Derive(ptr noundef %40, i32 noundef 0)
  store ptr %41, ptr %13, align 8
  br label %42

42:                                               ; preds = %39, %36
  %43 = load i32, ptr %10, align 4
  %44 = icmp ne i32 %43, 0
  br i1 %44, label %45, label %47

45:                                               ; preds = %42
  %46 = load ptr, ptr %13, align 8
  call void @Cnf_DataTranformPolarity(ptr noundef %46, i32 noundef 0)
  br label %47

47:                                               ; preds = %45, %42
  %48 = load ptr, ptr %13, align 8
  %49 = getelementptr inbounds %struct.Cnf_Dat_t_, ptr %48, i32 0, i32 1
  %50 = load i32, ptr %49, align 8
  %51 = load ptr, ptr %13, align 8
  %52 = getelementptr inbounds %struct.Cnf_Dat_t_, ptr %51, i32 0, i32 3
  %53 = load i32, ptr %52, align 8
  %54 = load ptr, ptr %13, align 8
  %55 = getelementptr inbounds %struct.Cnf_Dat_t_, ptr %54, i32 0, i32 2
  %56 = load i32, ptr %55, align 4
  call void (i32, ptr, ...) @Abc_Print(i32 noundef 1, ptr noundef @.str.24, i32 noundef %50, i32 noundef %53, i32 noundef %56)
  %57 = call i64 @Abc_Clock()
  %58 = load i64, ptr %15, align 8
  %59 = sub nsw i64 %57, %58
  call void @Abc_PrintTime(i32 noundef 1, ptr noundef @.str.25, i64 noundef %59)
  %60 = load ptr, ptr %13, align 8
  %61 = load ptr, ptr %8, align 8
  call void @Cnf_DataWriteIntoFile(ptr noundef %60, ptr noundef %61, i32 noundef 0, ptr noundef null, ptr noundef null)
  %62 = load ptr, ptr %13, align 8
  call void @Cnf_DataFree(ptr noundef %62)
  call void (...) @Cnf_ManFree()
  %63 = load ptr, ptr %12, align 8
  call void @Aig_ManStop(ptr noundef %63)
  %64 = load ptr, ptr %14, align 8
  store ptr %64, ptr %6, align 8
  br label %65

65:                                               ; preds = %47, %26, %21
  %66 = load ptr, ptr %6, align 8
  ret ptr %66
}