; Function Attrs: nounwind uwtable
define noalias noundef ptr @Abc_NtkDarToCnf(ptr noundef %0, ptr noundef %1, i32 noundef %2, i32 noundef %3, i32 noundef %4) local_unnamed_addr #1 {
  %6 = alloca %struct.timespec, align 8
  %7 = alloca %struct.timespec, align 8
  call void @llvm.lifetime.start.p0(i64 16, ptr nonnull %7)
  %8 = call i32 @clock_gettime(i32 noundef 1, ptr noundef nonnull %7) #19
  %9 = icmp slt i32 %8, 0
  br i1 %9, label %Abc_Clock.exit, label %10

10:                                               ; preds = %5
  %11 = load i64, ptr %7, align 8
  %.neg26 = mul i64 %11, -1000000
  %12 = getelementptr inbounds nuw i8, ptr %7, i64 8
  %13 = load i64, ptr %12, align 8
  %.neg = sdiv i64 %13, -1000
  %.neg27 = add i64 %.neg, %.neg26
  br label %Abc_Clock.exit

Abc_Clock.exit:                                   ; preds = %5, %10
  %.0.i.neg = phi i64 [ %.neg27, %10 ], [ 1, %5 ]
  call void @llvm.lifetime.end.p0(i64 16, ptr nonnull %7)
  %14 = call ptr @Abc_NtkToDar(ptr noundef %0, i32 noundef 0, i32 noundef 0)
  %15 = icmp eq ptr %14, null
  br i1 %15, label %47, label %16

16:                                               ; preds = %Abc_Clock.exit
  %17 = call i32 @Aig_ManCheck(ptr noundef nonnull %14) #19
  %.not = icmp eq i32 %17, 0
  br i1 %.not, label %18, label %19

18:                                               ; preds = %16
  call void (i32, ptr, ...) @Abc_Print(i32 poison, ptr noundef nonnull @.str.23)
  br label %.sink.split

19:                                               ; preds = %16
  %.not21 = icmp eq i32 %4, 0
  br i1 %.not21, label %21, label %20

20:                                               ; preds = %19
  call void @Aig_ManPrintStats(ptr noundef nonnull %14) #19
  br label %21

21:                                               ; preds = %20, %19
  %.not22 = icmp eq i32 %2, 0
  br i1 %.not22, label %24, label %22

22:                                               ; preds = %21
  %23 = call ptr @Cnf_DeriveFast(ptr noundef nonnull %14, i32 noundef 0) #19
  br label %26

24:                                               ; preds = %21
  %25 = call ptr @Cnf_Derive(ptr noundef nonnull %14, i32 noundef 0) #19
  br label %26

26:                                               ; preds = %24, %22
  %.020 = phi ptr [ %23, %22 ], [ %25, %24 ]
  %.not23 = icmp eq i32 %3, 0
  br i1 %.not23, label %28, label %27

27:                                               ; preds = %26
  call void @Cnf_DataTranformPolarity(ptr noundef %.020, i32 noundef 0) #19
  br label %28

28:                                               ; preds = %27, %26
  %29 = getelementptr inbounds nuw i8, ptr %.020, i64 8
  %30 = load i32, ptr %29, align 8
  %31 = getelementptr inbounds nuw i8, ptr %.020, i64 16
  %32 = load i32, ptr %31, align 8
  %33 = getelementptr inbounds nuw i8, ptr %.020, i64 12
  %34 = load i32, ptr %33, align 4
  call void (i32, ptr, ...) @Abc_Print(i32 poison, ptr noundef nonnull @.str.24, i32 noundef %30, i32 noundef %32, i32 noundef %34)
  call void @llvm.lifetime.start.p0(i64 16, ptr nonnull %6)
  %35 = call i32 @clock_gettime(i32 noundef 1, ptr noundef nonnull %6) #19
  %36 = icmp slt i32 %35, 0
  br i1 %36, label %Abc_Clock.exit25, label %37

37:                                               ; preds = %28
  %38 = load i64, ptr %6, align 8
  %39 = mul nsw i64 %38, 1000000
  %40 = getelementptr inbounds nuw i8, ptr %6, i64 8
  %41 = load i64, ptr %40, align 8
  %42 = sdiv i64 %41, 1000
  %43 = add nsw i64 %42, %39
  br label %Abc_Clock.exit25

Abc_Clock.exit25:                                 ; preds = %28, %37
  %.0.i24 = phi i64 [ %43, %37 ], [ -1, %28 ]
  call void @llvm.lifetime.end.p0(i64 16, ptr nonnull %6)
  %44 = add i64 %.0.i24, %.0.i.neg
  call void (i32, ptr, ...) @Abc_Print(i32 poison, ptr noundef nonnull @.str.32, ptr noundef nonnull @.str.25)
  %45 = sitofp i64 %44 to double
  %46 = fdiv double %45, 1.000000e+06
  call void (i32, ptr, ...) @Abc_Print(i32 poison, ptr noundef nonnull @.str.33, double noundef %46)
  call void @Cnf_DataWriteIntoFile(ptr noundef nonnull %.020, ptr noundef %1, i32 noundef 0, ptr noundef null, ptr noundef null) #19
  call void @Cnf_DataFree(ptr noundef nonnull %.020) #19
  call void (...) @Cnf_ManFree() #19
  br label %.sink.split

.sink.split:                                      ; preds = %18, %Abc_Clock.exit25
  call void @Aig_ManStop(ptr noundef nonnull %14) #19
  br label %47

47:                                               ; preds = %.sink.split, %Abc_Clock.exit
  ret ptr null
}